#include <math.h>
#include <stdio.h>
#include <stdlib.h>
#include <string.h>


int main()
{
    int n,b[500]={0},i,j,k,max=0;
    char a[500];
    scanf("%d",&n);
    a[0]=getchar();
    gets(a);
    for(k=0;k<500;k++)
      if(a[k]!='\0')
      for(j=k+1;j<500;j++)
        if(a[j]!='\0')
        {
          for(i=0;i<n;i++)
            if(a[k+i]!=a[j+i]) break;
          if(i==n) b[k]++;
        }
        else break;
      else break;
    for(i=0;i<500;i++)
      if(b[i]>max) max=b[i];
    if(max!=0)
    {
    printf("%d\n",max+1);
    for(i=0;i<500;i++)
      if(b[i]==max)
      {
      for(j=0;j<n;j++)
        printf("%c",a[i+j]);
      printf("\n");
      }
    }
    else printf("NO\n");
    //scanf("%d",&n);
    return 0;
}
    
