; ModuleID = '51/1039.c'
source_filename = "51/1039.c"
target datalayout = "e-m:e-p270:32:32-p271:32:32-p272:64:64-i64:64-f80:128-n8:16:32:64-S128"
target triple = "x86_64-pc-linux-gnu"

@.str = private unnamed_addr constant [3 x i8] c"%d\00", align 1
@.str.1 = private unnamed_addr constant [4 x i8] c"%d\0A\00", align 1
@.str.2 = private unnamed_addr constant [3 x i8] c"%c\00", align 1
@.str.3 = private unnamed_addr constant [2 x i8] c"\0A\00", align 1
@.str.4 = private unnamed_addr constant [4 x i8] c"NO\0A\00", align 1

; Function Attrs: noinline nounwind uwtable
define dso_local i32 @main() #0 {
  %1 = alloca i32, align 4
  %2 = alloca i32, align 4
  %3 = alloca [500 x i32], align 16
  %4 = alloca i32, align 4
  %5 = alloca i32, align 4
  %6 = alloca i32, align 4
  %7 = alloca i32, align 4
  %8 = alloca [500 x i8], align 16
  store i32 0, i32* %1, align 4
  %9 = bitcast [500 x i32]* %3 to i8*
  call void @llvm.memset.p0i8.i64(i8* align 16 %9, i8 0, i64 2000, i1 false)
  store i32 0, i32* %7, align 4
  %10 = call i32 (i8*, ...) @__isoc99_scanf(i8* getelementptr inbounds ([3 x i8], [3 x i8]* @.str, i64 0, i64 0), i32* %2)
  %11 = call i32 @getchar()
  %12 = trunc i32 %11 to i8
  %13 = getelementptr inbounds [500 x i8], [500 x i8]* %8, i64 0, i64 0
  store i8 %12, i8* %13, align 16
  %14 = getelementptr inbounds [500 x i8], [500 x i8]* %8, i64 0, i64 0
  %15 = call i32 (i8*, ...) bitcast (i32 (...)* @gets to i32 (i8*, ...)*)(i8* %14)
  store i32 0, i32* %6, align 4
  br label %16

16:                                               ; preds = %84, %0
  %17 = load i32, i32* %6, align 4
  %18 = icmp slt i32 %17, 500
  br i1 %18, label %19, label %87

19:                                               ; preds = %16
  %20 = load i32, i32* %6, align 4
  %21 = sext i32 %20 to i64
  %22 = getelementptr inbounds [500 x i8], [500 x i8]* %8, i64 0, i64 %21
  %23 = load i8, i8* %22, align 1
  %24 = sext i8 %23 to i32
  %25 = icmp ne i32 %24, 0
  br i1 %25, label %26, label %82

26:                                               ; preds = %19
  %27 = load i32, i32* %6, align 4
  %28 = add nsw i32 %27, 1
  store i32 %28, i32* %5, align 4
  br label %29

29:                                               ; preds = %78, %26
  %30 = load i32, i32* %5, align 4
  %31 = icmp slt i32 %30, 500
  br i1 %31, label %32, label %81

32:                                               ; preds = %29
  %33 = load i32, i32* %5, align 4
  %34 = sext i32 %33 to i64
  %35 = getelementptr inbounds [500 x i8], [500 x i8]* %8, i64 0, i64 %34
  %36 = load i8, i8* %35, align 1
  %37 = sext i8 %36 to i32
  %38 = icmp ne i32 %37, 0
  br i1 %38, label %39, label %76

39:                                               ; preds = %32
  store i32 0, i32* %4, align 4
  br label %40

40:                                               ; preds = %62, %39
  %41 = load i32, i32* %4, align 4
  %42 = load i32, i32* %2, align 4
  %43 = icmp slt i32 %41, %42
  br i1 %43, label %44, label %65

44:                                               ; preds = %40
  %45 = load i32, i32* %6, align 4
  %46 = load i32, i32* %4, align 4
  %47 = add nsw i32 %45, %46
  %48 = sext i32 %47 to i64
  %49 = getelementptr inbounds [500 x i8], [500 x i8]* %8, i64 0, i64 %48
  %50 = load i8, i8* %49, align 1
  %51 = sext i8 %50 to i32
  %52 = load i32, i32* %5, align 4
  %53 = load i32, i32* %4, align 4
  %54 = add nsw i32 %52, %53
  %55 = sext i32 %54 to i64
  %56 = getelementptr inbounds [500 x i8], [500 x i8]* %8, i64 0, i64 %55
  %57 = load i8, i8* %56, align 1
  %58 = sext i8 %57 to i32
  %59 = icmp ne i32 %51, %58
  br i1 %59, label %60, label %61

60:                                               ; preds = %44
  br label %65

61:                                               ; preds = %44
  br label %62

62:                                               ; preds = %61
  %63 = load i32, i32* %4, align 4
  %64 = add nsw i32 %63, 1
  store i32 %64, i32* %4, align 4
  br label %40

65:                                               ; preds = %60, %40
  %66 = load i32, i32* %4, align 4
  %67 = load i32, i32* %2, align 4
  %68 = icmp eq i32 %66, %67
  br i1 %68, label %69, label %75

69:                                               ; preds = %65
  %70 = load i32, i32* %6, align 4
  %71 = sext i32 %70 to i64
  %72 = getelementptr inbounds [500 x i32], [500 x i32]* %3, i64 0, i64 %71
  %73 = load i32, i32* %72, align 4
  %74 = add nsw i32 %73, 1
  store i32 %74, i32* %72, align 4
  br label %75

75:                                               ; preds = %69, %65
  br label %77

76:                                               ; preds = %32
  br label %81

77:                                               ; preds = %75
  br label %78

78:                                               ; preds = %77
  %79 = load i32, i32* %5, align 4
  %80 = add nsw i32 %79, 1
  store i32 %80, i32* %5, align 4
  br label %29

81:                                               ; preds = %76, %29
  br label %83

82:                                               ; preds = %19
  br label %87

83:                                               ; preds = %81
  br label %84

84:                                               ; preds = %83
  %85 = load i32, i32* %6, align 4
  %86 = add nsw i32 %85, 1
  store i32 %86, i32* %6, align 4
  br label %16

87:                                               ; preds = %82, %16
  store i32 0, i32* %4, align 4
  br label %88

88:                                               ; preds = %104, %87
  %89 = load i32, i32* %4, align 4
  %90 = icmp slt i32 %89, 500
  br i1 %90, label %91, label %107

91:                                               ; preds = %88
  %92 = load i32, i32* %4, align 4
  %93 = sext i32 %92 to i64
  %94 = getelementptr inbounds [500 x i32], [500 x i32]* %3, i64 0, i64 %93
  %95 = load i32, i32* %94, align 4
  %96 = load i32, i32* %7, align 4
  %97 = icmp sgt i32 %95, %96
  br i1 %97, label %98, label %103

98:                                               ; preds = %91
  %99 = load i32, i32* %4, align 4
  %100 = sext i32 %99 to i64
  %101 = getelementptr inbounds [500 x i32], [500 x i32]* %3, i64 0, i64 %100
  %102 = load i32, i32* %101, align 4
  store i32 %102, i32* %7, align 4
  br label %103

103:                                              ; preds = %98, %91
  br label %104

104:                                              ; preds = %103
  %105 = load i32, i32* %4, align 4
  %106 = add nsw i32 %105, 1
  store i32 %106, i32* %4, align 4
  br label %88

107:                                              ; preds = %88
  %108 = load i32, i32* %7, align 4
  %109 = icmp ne i32 %108, 0
  br i1 %109, label %110, label %148

110:                                              ; preds = %107
  %111 = load i32, i32* %7, align 4
  %112 = add nsw i32 %111, 1
  %113 = call i32 (i8*, ...) @printf(i8* getelementptr inbounds ([4 x i8], [4 x i8]* @.str.1, i64 0, i64 0), i32 %112)
  store i32 0, i32* %4, align 4
  br label %114

114:                                              ; preds = %144, %110
  %115 = load i32, i32* %4, align 4
  %116 = icmp slt i32 %115, 500
  br i1 %116, label %117, label %147

117:                                              ; preds = %114
  %118 = load i32, i32* %4, align 4
  %119 = sext i32 %118 to i64
  %120 = getelementptr inbounds [500 x i32], [500 x i32]* %3, i64 0, i64 %119
  %121 = load i32, i32* %120, align 4
  %122 = load i32, i32* %7, align 4
  %123 = icmp eq i32 %121, %122
  br i1 %123, label %124, label %143

124:                                              ; preds = %117
  store i32 0, i32* %5, align 4
  br label %125

125:                                              ; preds = %138, %124
  %126 = load i32, i32* %5, align 4
  %127 = load i32, i32* %2, align 4
  %128 = icmp slt i32 %126, %127
  br i1 %128, label %129, label %141

129:                                              ; preds = %125
  %130 = load i32, i32* %4, align 4
  %131 = load i32, i32* %5, align 4
  %132 = add nsw i32 %130, %131
  %133 = sext i32 %132 to i64
  %134 = getelementptr inbounds [500 x i8], [500 x i8]* %8, i64 0, i64 %133
  %135 = load i8, i8* %134, align 1
  %136 = sext i8 %135 to i32
  %137 = call i32 (i8*, ...) @printf(i8* getelementptr inbounds ([3 x i8], [3 x i8]* @.str.2, i64 0, i64 0), i32 %136)
  br label %138

138:                                              ; preds = %129
  %139 = load i32, i32* %5, align 4
  %140 = add nsw i32 %139, 1
  store i32 %140, i32* %5, align 4
  br label %125

141:                                              ; preds = %125
  %142 = call i32 (i8*, ...) @printf(i8* getelementptr inbounds ([2 x i8], [2 x i8]* @.str.3, i64 0, i64 0))
  br label %143

143:                                              ; preds = %141, %117
  br label %144

144:                                              ; preds = %143
  %145 = load i32, i32* %4, align 4
  %146 = add nsw i32 %145, 1
  store i32 %146, i32* %4, align 4
  br label %114

147:                                              ; preds = %114
  br label %150

148:                                              ; preds = %107
  %149 = call i32 (i8*, ...) @printf(i8* getelementptr inbounds ([4 x i8], [4 x i8]* @.str.4, i64 0, i64 0))
  br label %150

150:                                              ; preds = %148, %147
  ret i32 0
}

; Function Attrs: argmemonly nounwind willreturn
declare void @llvm.memset.p0i8.i64(i8* nocapture writeonly, i8, i64, i1 immarg) #1

declare dso_local i32 @__isoc99_scanf(i8*, ...) #2

declare dso_local i32 @getchar() #2

declare dso_local i32 @gets(...) #2

declare dso_local i32 @printf(i8*, ...) #2


!llvm.module.flags = !{!0}
!llvm.ident = !{!1}

!0 = !{i32 1, !"wchar_size", i32 4}
!1 = !{!"clang version 10.0.0-4ubuntu1 "}
